target datalayout = "e-m:e-p270:32:32-p271:32:32-p272:64:64-i64:64-i128:128-f80:128-n8:16:32:64-S128"
target triple = "x86_64-pc-linux-gnu"

%struct.pkcs12_st = type { ptr, i64 }
%struct.buf_mem_st = type { i64, ptr, i64 }

; Function Attrs: nounwind uwtable
define hidden void @PKCS12_free(ptr noundef %0) #0 {
  %2 = alloca ptr, align 8
  store ptr %0, ptr %2, align 8, !tbaa !79
  %3 = load ptr, ptr %2, align 8, !tbaa !79
  %4 = icmp eq ptr %3, null
  br i1 %4, label %5, label %6

5:                                                ; preds = %1
  br label %11

6:                                                ; preds = %1
  %7 = load ptr, ptr %2, align 8, !tbaa !79
  %8 = getelementptr inbounds nuw %struct.pkcs12_st, ptr %7, i32 0, i32 0
  %9 = load ptr, ptr %8, align 8, !tbaa !81
  call void @free(ptr noundef %9) #8
  %10 = load ptr, ptr %2, align 8, !tbaa !79
  call void @free(ptr noundef %10) #8
  br label %11

11:                                               ; preds = %6, %5
  ret void
}

; Function Attrs: nounwind uwtable
define hidden ptr @d2i_PKCS12(ptr noundef %0, ptr noundef %1, i64 noundef %2) #0 {
  %4 = alloca ptr, align 8
  %5 = alloca ptr, align 8
  %6 = alloca ptr, align 8
  %7 = alloca i64, align 8
  %8 = alloca ptr, align 8
  %9 = alloca i32, align 4
  store ptr %0, ptr %5, align 8, !tbaa !77
  store ptr %1, ptr %6, align 8, !tbaa !27
  store i64 %2, ptr %7, align 8, !tbaa !15
  call void @llvm.lifetime.start.p0(i64 8, ptr %8) #8
  %10 = call noalias ptr @malloc(i64 noundef 16) #10
  store ptr %10, ptr %8, align 8, !tbaa !79
  %11 = load ptr, ptr %8, align 8, !tbaa !79
  %12 = icmp ne ptr %11, null
  br i1 %12, label %14, label %13

13:                                               ; preds = %3
  store ptr null, ptr %4, align 8
  store i32 1, ptr %9, align 4
  br label %48

14:                                               ; preds = %3
  %15 = load i64, ptr %7, align 8, !tbaa !15
  %16 = call noalias ptr @malloc(i64 noundef %15) #10
  %17 = load ptr, ptr %8, align 8, !tbaa !79
  %18 = getelementptr inbounds nuw %struct.pkcs12_st, ptr %17, i32 0, i32 0
  store ptr %16, ptr %18, align 8, !tbaa !81
  %19 = load ptr, ptr %8, align 8, !tbaa !79
  %20 = getelementptr inbounds nuw %struct.pkcs12_st, ptr %19, i32 0, i32 0
  %21 = load ptr, ptr %20, align 8, !tbaa !81
  %22 = icmp ne ptr %21, null
  br i1 %22, label %25, label %23

23:                                               ; preds = %14
  %24 = load ptr, ptr %8, align 8, !tbaa !79
  call void @free(ptr noundef %24) #8
  store ptr null, ptr %4, align 8
  store i32 1, ptr %9, align 4
  br label %48

25:                                               ; preds = %14
  %26 = load ptr, ptr %8, align 8, !tbaa !79
  %27 = getelementptr inbounds nuw %struct.pkcs12_st, ptr %26, i32 0, i32 0
  %28 = load ptr, ptr %27, align 8, !tbaa !81
  %29 = load ptr, ptr %6, align 8, !tbaa !27
  %30 = load ptr, ptr %29, align 8, !tbaa !11
  %31 = load i64, ptr %7, align 8, !tbaa !15
  call void @llvm.memcpy.p0.p0.i64(ptr align 1 %28, ptr align 1 %30, i64 %31, i1 false)
  %32 = load i64, ptr %7, align 8, !tbaa !15
  %33 = load ptr, ptr %8, align 8, !tbaa !79
  %34 = getelementptr inbounds nuw %struct.pkcs12_st, ptr %33, i32 0, i32 1
  store i64 %32, ptr %34, align 8, !tbaa !83
  %35 = load i64, ptr %7, align 8, !tbaa !15
  %36 = load ptr, ptr %6, align 8, !tbaa !27
  %37 = load ptr, ptr %36, align 8, !tbaa !11
  %38 = getelementptr inbounds nuw i8, ptr %37, i64 %35
  store ptr %38, ptr %36, align 8, !tbaa !11
  %39 = load ptr, ptr %5, align 8, !tbaa !77
  %40 = icmp ne ptr %39, null
  br i1 %40, label %41, label %46

41:                                               ; preds = %25
  %42 = load ptr, ptr %5, align 8, !tbaa !77
  %43 = load ptr, ptr %42, align 8, !tbaa !79
  call void @PKCS12_free(ptr noundef %43)
  %44 = load ptr, ptr %8, align 8, !tbaa !79
  %45 = load ptr, ptr %5, align 8, !tbaa !77
  store ptr %44, ptr %45, align 8, !tbaa !79
  br label %46

46:                                               ; preds = %41, %25
  %47 = load ptr, ptr %8, align 8, !tbaa !79
  store ptr %47, ptr %4, align 8
  store i32 1, ptr %9, align 4
  br label %48

48:                                               ; preds = %46, %23, %13
  call void @llvm.lifetime.end.p0(i64 8, ptr %8) #8
  %49 = load ptr, ptr %4, align 8
  ret ptr %49
}

; Function Attrs: nounwind uwtable
define hidden ptr @d2i_PKCS12_bio(ptr noundef %0, ptr noundef %1) #0 {
  %3 = alloca ptr, align 8
  %4 = alloca ptr, align 8
  %5 = alloca ptr, align 8
  %6 = alloca i64, align 8
  %7 = alloca ptr, align 8
  %8 = alloca ptr, align 8
  %9 = alloca ptr, align 8
  %10 = alloca i32, align 4
  %11 = alloca i32, align 4
  store ptr %0, ptr %4, align 8, !tbaa !84
  store ptr %1, ptr %5, align 8, !tbaa !77
  call void @llvm.lifetime.start.p0(i64 8, ptr %6) #8
  store i64 0, ptr %6, align 8, !tbaa !15
  call void @llvm.lifetime.start.p0(i64 8, ptr %7) #8
  call void @llvm.lifetime.start.p0(i64 8, ptr %8) #8
  call void @llvm.lifetime.start.p0(i64 8, ptr %9) #8
  store ptr null, ptr %9, align 8, !tbaa !79
  %12 = call ptr @BUF_MEM_new()
  store ptr %12, ptr %7, align 8, !tbaa !86
  %13 = load ptr, ptr %7, align 8, !tbaa !86
  %14 = icmp eq ptr %13, null
  br i1 %14, label %15, label %16

15:                                               ; preds = %2
  store ptr null, ptr %3, align 8
  store i32 1, ptr %10, align 4
  br label %86

16:                                               ; preds = %2
  %17 = load ptr, ptr %7, align 8, !tbaa !86
  %18 = call i64 @BUF_MEM_grow(ptr noundef %17, i64 noundef 8192)
  %19 = icmp eq i64 %18, 0
  br i1 %19, label %20, label %21

20:                                               ; preds = %16
  br label %83

21:                                               ; preds = %16
  br label %22

22:                                               ; preds = %75, %73, %21
  call void @llvm.lifetime.start.p0(i64 4, ptr %11) #8
  %23 = load ptr, ptr %4, align 8, !tbaa !84
  %24 = load ptr, ptr %7, align 8, !tbaa !86
  %25 = getelementptr inbounds nuw %struct.buf_mem_st, ptr %24, i32 0, i32 1
  %26 = load ptr, ptr %25, align 8, !tbaa !88
  %27 = load i64, ptr %6, align 8, !tbaa !15
  %28 = getelementptr inbounds nuw i8, ptr %26, i64 %27
  %29 = load ptr, ptr %7, align 8, !tbaa !86
  %30 = getelementptr inbounds nuw %struct.buf_mem_st, ptr %29, i32 0, i32 0
  %31 = load i64, ptr %30, align 8, !tbaa !90
  %32 = load i64, ptr %6, align 8, !tbaa !15
  %33 = sub i64 %31, %32
  %34 = trunc i64 %33 to i32
  %35 = call i32 @BIO_read(ptr noundef %23, ptr noundef %28, i32 noundef %34)
  store i32 %35, ptr %11, align 4, !tbaa !13
  %36 = load i32, ptr %11, align 4, !tbaa !13
  %37 = icmp slt i32 %36, 0
  br i1 %37, label %38, label %43

38:                                               ; preds = %22
  %39 = load i64, ptr %6, align 8, !tbaa !15
  %40 = icmp eq i64 %39, 0
  br i1 %40, label %41, label %42

41:                                               ; preds = %38
  store i32 2, ptr %10, align 4
  br label %73

42:                                               ; preds = %38
  store i32 0, ptr %11, align 4, !tbaa !13
  br label %43

43:                                               ; preds = %42, %22
  %44 = load i32, ptr %11, align 4, !tbaa !13
  %45 = icmp eq i32 %44, 0
  br i1 %45, label %46, label %47

46:                                               ; preds = %43
  store i32 3, ptr %10, align 4
  br label %73

47:                                               ; preds = %43
  %48 = load i32, ptr %11, align 4, !tbaa !13
  %49 = sext i32 %48 to i64
  %50 = load i64, ptr %6, align 8, !tbaa !15
  %51 = add i64 %50, %49
  store i64 %51, ptr %6, align 8, !tbaa !15
  %52 = load i64, ptr %6, align 8, !tbaa !15
  %53 = load ptr, ptr %7, align 8, !tbaa !86
  %54 = getelementptr inbounds nuw %struct.buf_mem_st, ptr %53, i32 0, i32 0
  %55 = load i64, ptr %54, align 8, !tbaa !90
  %56 = icmp ult i64 %52, %55
  br i1 %56, label %57, label %58

57:                                               ; preds = %47
  store i32 4, ptr %10, align 4
  br label %73

58:                                               ; preds = %47
  %59 = load ptr, ptr %7, align 8, !tbaa !86
  %60 = getelementptr inbounds nuw %struct.buf_mem_st, ptr %59, i32 0, i32 0
  %61 = load i64, ptr %60, align 8, !tbaa !90
  %62 = icmp ugt i64 %61, 262144
  br i1 %62, label %71, label %63

63:                                               ; preds = %58
  %64 = load ptr, ptr %7, align 8, !tbaa !86
  %65 = load ptr, ptr %7, align 8, !tbaa !86
  %66 = getelementptr inbounds nuw %struct.buf_mem_st, ptr %65, i32 0, i32 0
  %67 = load i64, ptr %66, align 8, !tbaa !90
  %68 = mul i64 %67, 2
  %69 = call i64 @BUF_MEM_grow(ptr noundef %64, i64 noundef %68)
  %70 = icmp eq i64 %69, 0
  br i1 %70, label %71, label %72

71:                                               ; preds = %63, %58
  store i32 2, ptr %10, align 4
  br label %73

72:                                               ; preds = %63
  store i32 0, ptr %10, align 4
  br label %73

73:                                               ; preds = %71, %41, %72, %57, %46
  call void @llvm.lifetime.end.p0(i64 4, ptr %11) #8
  %74 = load i32, ptr %10, align 4
  switch i32 %74, label %86 [
    i32 0, label %75
    i32 3, label %76
    i32 4, label %22
    i32 2, label %83
  ]

75:                                               ; preds = %73
  br label %22

76:                                               ; preds = %73
  %77 = load ptr, ptr %7, align 8, !tbaa !86
  %78 = getelementptr inbounds nuw %struct.buf_mem_st, ptr %77, i32 0, i32 1
  %79 = load ptr, ptr %78, align 8, !tbaa !88
  store ptr %79, ptr %8, align 8, !tbaa !11
  %80 = load ptr, ptr %5, align 8, !tbaa !77
  %81 = load i64, ptr %6, align 8, !tbaa !15
  %82 = call ptr @d2i_PKCS12(ptr noundef %80, ptr noundef %8, i64 noundef %81)
  store ptr %82, ptr %9, align 8, !tbaa !79
  br label %83

83:                                               ; preds = %76, %73, %20
  %84 = load ptr, ptr %7, align 8, !tbaa !86
  call void @BUF_MEM_free(ptr noundef %84)
  %85 = load ptr, ptr %9, align 8, !tbaa !79
  store ptr %85, ptr %3, align 8
  store i32 1, ptr %10, align 4
  br label %86

86:                                               ; preds = %83, %73, %15
  call void @llvm.lifetime.end.p0(i64 8, ptr %9) #8
  call void @llvm.lifetime.end.p0(i64 8, ptr %8) #8
  call void @llvm.lifetime.end.p0(i64 8, ptr %7) #8
  call void @llvm.lifetime.end.p0(i64 8, ptr %6) #8
  %87 = load ptr, ptr %3, align 8
  ret ptr %87
}