; Function Attrs: nounwind uwtable
define hidden noundef ptr @d2i_PKCS12_bio(ptr noundef %0, ptr noundef captures(address_is_null) %1) local_unnamed_addr #0 {
  %3 = tail call ptr @BUF_MEM_new() #12
  %4 = icmp eq ptr %3, null
  br i1 %4, label %48, label %5

5:                                                ; preds = %2
  %6 = tail call i64 @BUF_MEM_grow(ptr noundef nonnull %3, i64 noundef 8192) #12
  %7 = icmp eq i64 %6, 0
  br i1 %7, label %d2i_PKCS12.exit, label %.preheader

.preheader:                                       ; preds = %5
  %8 = getelementptr inbounds nuw i8, ptr %3, i64 8
  %9 = load ptr, ptr %8, align 8, !tbaa !55
  %10 = load i64, ptr %3, align 8, !tbaa !57
  %11 = trunc i64 %10 to i32
  %12 = tail call i32 @BIO_read(ptr noundef %0, ptr noundef %9, i32 noundef %11) #12
  %13 = icmp slt i32 %12, 0
  br i1 %13, label %d2i_PKCS12.exit, label %.lr.ph

._crit_edge:                                      ; preds = %28
  %14 = icmp eq i64 %19, 0
  br i1 %14, label %d2i_PKCS12.exit, label %.thread

.lr.ph:                                           ; preds = %.preheader, %28
  %15 = phi i32 [ %34, %28 ], [ %12, %.preheader ]
  %.02646 = phi i64 [ %19, %28 ], [ 0, %.preheader ]
  %16 = icmp eq i32 %15, 0
  br i1 %16, label %.thread, label %17

17:                                               ; preds = %.lr.ph
  %18 = zext nneg i32 %15 to i64
  %19 = add i64 %.02646, %18
  %20 = load i64, ptr %3, align 8, !tbaa !57
  %21 = icmp ult i64 %19, %20
  br i1 %21, label %28, label %22

22:                                               ; preds = %17
  %23 = icmp ugt i64 %20, 262144
  br i1 %23, label %d2i_PKCS12.exit, label %24

24:                                               ; preds = %22
  %25 = shl nuw nsw i64 %20, 1
  %26 = tail call i64 @BUF_MEM_grow(ptr noundef nonnull %3, i64 noundef %25) #12
  %27 = icmp eq i64 %26, 0
  br i1 %27, label %d2i_PKCS12.exit, label %._crit_edge50

._crit_edge50:                                    ; preds = %24
  %.pre = load i64, ptr %3, align 8, !tbaa !57
  br label %28

28:                                               ; preds = %._crit_edge50, %17
  %29 = phi i64 [ %.pre, %._crit_edge50 ], [ %20, %17 ]
  %30 = load ptr, ptr %8, align 8, !tbaa !55
  %31 = getelementptr inbounds nuw i8, ptr %30, i64 %19
  %32 = sub i64 %29, %19
  %33 = trunc i64 %32 to i32
  %34 = tail call i32 @BIO_read(ptr noundef %0, ptr noundef %31, i32 noundef %33) #12
  %35 = icmp slt i32 %34, 0
  br i1 %35, label %._crit_edge, label %.lr.ph

.thread:                                          ; preds = %.lr.ph, %._crit_edge
  %.02645 = phi i64 [ %19, %._crit_edge ], [ %.02646, %.lr.ph ]
  %36 = load ptr, ptr %8, align 8, !tbaa !55
  %37 = tail call noalias dereferenceable_or_null(16) ptr @malloc(i64 noundef 16) #14
  %.not.i = icmp eq ptr %37, null
  br i1 %.not.i, label %d2i_PKCS12.exit, label %38

38:                                               ; preds = %.thread
  %39 = tail call noalias ptr @malloc(i64 noundef %.02645) #14
  store ptr %39, ptr %37, align 8, !tbaa !50
  %.not20.i = icmp eq ptr %39, null
  br i1 %.not20.i, label %40, label %41

40:                                               ; preds = %38
  tail call void @free(ptr noundef nonnull %37) #12
  br label %d2i_PKCS12.exit

41:                                               ; preds = %38
  tail call void @llvm.memcpy.p0.p0.i64(ptr nonnull align 1 %39, ptr align 1 %36, i64 %.02645, i1 false)
  %42 = getelementptr inbounds nuw i8, ptr %37, i64 8
  store i64 %.02645, ptr %42, align 8, !tbaa !52
  %.not21.i = icmp eq ptr %1, null
  br i1 %.not21.i, label %d2i_PKCS12.exit, label %43

43:                                               ; preds = %41
  %44 = load ptr, ptr %1, align 8, !tbaa !53
  %45 = icmp eq ptr %44, null
  br i1 %45, label %PKCS12_free.exit.i, label %46

46:                                               ; preds = %43
  %47 = load ptr, ptr %44, align 8, !tbaa !50
  tail call void @free(ptr noundef %47) #12
  tail call void @free(ptr noundef nonnull %44) #12
  br label %PKCS12_free.exit.i

PKCS12_free.exit.i:                               ; preds = %46, %43
  store ptr %37, ptr %1, align 8, !tbaa !53
  br label %d2i_PKCS12.exit

d2i_PKCS12.exit:                                  ; preds = %24, %22, %.preheader, %._crit_edge, %PKCS12_free.exit.i, %41, %40, %.thread, %5
  %.024 = phi ptr [ null, %5 ], [ null, %40 ], [ null, %.thread ], [ %37, %PKCS12_free.exit.i ], [ %37, %41 ], [ null, %._crit_edge ], [ null, %.preheader ], [ null, %22 ], [ null, %24 ]
  tail call void @BUF_MEM_free(ptr noundef nonnull %3) #12
  br label %48

48:                                               ; preds = %2, %d2i_PKCS12.exit
  %.025 = phi ptr [ %.024, %d2i_PKCS12.exit ], [ null, %2 ]
  ret ptr %.025
}